target datalayout = "e-m:e-p270:32:32-p271:32:32-p272:64:64-i64:64-i128:128-f80:128-n8:16:32:64-S128"
target triple = "x86_64-pc-linux-gnu"

%class.JSON = type <{ ptr, ptr, ptr, ptr, ptr, i32, i32, i32, i8, i8, [2 x i8] }>

@.str.33 = private unnamed_addr constant [40 x i8] c"maybe you forgot to quote your strings?\00", align 1

; Function Attrs: mustprogress nounwind uwtable
define hidden void @_ZN4JSON8mark_posEv(ptr noundef nonnull align 8 dereferenceable(54) %0) #1 align 2 {
  %2 = alloca ptr, align 8
  %3 = alloca i8, align 1
  store ptr %0, ptr %2, align 8
  %4 = load ptr, ptr %2, align 8
  br label %5

5:                                                ; preds = %34, %1
  %6 = getelementptr inbounds %class.JSON, ptr %4, i32 0, i32 4
  %7 = load ptr, ptr %6, align 8
  %8 = getelementptr inbounds %class.JSON, ptr %4, i32 0, i32 3
  %9 = load ptr, ptr %8, align 8
  %10 = icmp ult ptr %7, %9
  br i1 %10, label %11, label %35

11:                                               ; preds = %5
  %12 = getelementptr inbounds %class.JSON, ptr %4, i32 0, i32 4
  %13 = load ptr, ptr %12, align 8
  %14 = load i8, ptr %13, align 1
  store i8 %14, ptr %3, align 1
  %15 = load i8, ptr %3, align 1
  %16 = zext i8 %15 to i32
  %17 = icmp ne i32 %16, 0
  br i1 %17, label %18, label %25

18:                                               ; preds = %11
  %19 = getelementptr inbounds %class.JSON, ptr %4, i32 0, i32 4
  %20 = load ptr, ptr %19, align 8
  %21 = getelementptr inbounds i8, ptr %20, i32 1
  store ptr %21, ptr %19, align 8
  %22 = getelementptr inbounds %class.JSON, ptr %4, i32 0, i32 7
  %23 = load i32, ptr %22, align 8
  %24 = add i32 %23, 1
  store i32 %24, ptr %22, align 8
  br label %25

25:                                               ; preds = %18, %11
  %26 = load i8, ptr %3, align 1
  %27 = zext i8 %26 to i32
  %28 = icmp eq i32 %27, 10
  br i1 %28, label %29, label %34

29:                                               ; preds = %25
  %30 = getelementptr inbounds %class.JSON, ptr %4, i32 0, i32 6
  %31 = load i32, ptr %30, align 4
  %32 = add i32 %31, 1
  store i32 %32, ptr %30, align 4
  %33 = getelementptr inbounds %class.JSON, ptr %4, i32 0, i32 7
  store i32 0, ptr %33, align 8
  br label %34

34:                                               ; preds = %29, %25
  br label %5, !llvm.loop !10

35:                                               ; preds = %5
  ret void
}

; Function Attrs: mustprogress nounwind uwtable
define hidden noundef zeroext i1 @_ZN4JSON17parse_json_symbolEPKcNS_9JSON_TYPEE(ptr noundef nonnull align 8 dereferenceable(54) %0, ptr noundef %1, i32 noundef %2) #1 align 2 {
  %4 = alloca i1, align 1
  %5 = alloca ptr, align 8
  %6 = alloca ptr, align 8
  %7 = alloca i32, align 4
  store ptr %0, ptr %5, align 8
  store ptr %1, ptr %6, align 8
  store i32 %2, ptr %7, align 4
  %8 = load ptr, ptr %5, align 8
  %9 = load ptr, ptr %6, align 8
  %10 = call noundef zeroext i1 @_ZN4JSON13expect_stringEPKcS1_NS_10JSON_ERRORE(ptr noundef nonnull align 8 dereferenceable(54) %8, ptr noundef %9, ptr noundef @.str.33, i32 noundef 1)
  %11 = zext i1 %10 to i32
  %12 = icmp eq i32 %11, 0
  br i1 %12, label %13, label %14

13:                                               ; preds = %3
  call void @_ZN4JSON8mark_posEv(ptr noundef nonnull align 8 dereferenceable(54) %8)
  store i1 false, ptr %4, align 1
  br label %22

14:                                               ; preds = %3
  %15 = load i32, ptr %7, align 4
  %16 = getelementptr inbounds %class.JSON, ptr %8, i32 0, i32 5
  %17 = load i32, ptr %16, align 8
  %18 = load ptr, ptr %8, align 8
  %19 = getelementptr inbounds ptr, ptr %18, i64 0
  %20 = load ptr, ptr %19, align 8
  %21 = call noundef zeroext i1 %20(ptr noundef nonnull align 8 dereferenceable(54) %8, i32 noundef %15, ptr noundef null, i32 noundef %17)
  store i1 %21, ptr %4, align 1
  br label %22

22:                                               ; preds = %14, %13
  %23 = load i1, ptr %4, align 1
  ret i1 %23
}