; Function Attrs: mustprogress nounwind uwtable
define hidden noundef zeroext i1 @_ZN4JSON17parse_json_symbolEPKcNS_9JSON_TYPEE(ptr noundef nonnull align 8 dereferenceable(54) %0, ptr noundef %1, i32 noundef %2) local_unnamed_addr #1 align 2 {
  %4 = tail call noundef zeroext i1 @_ZN4JSON13expect_stringEPKcS1_NS_10JSON_ERRORE(ptr noundef nonnull align 8 dereferenceable(54) %0, ptr noundef %1, ptr noundef nonnull @.str.33, i32 noundef 1)
  br i1 %4, label %28, label %5

5:                                                ; preds = %3
  %6 = getelementptr inbounds i8, ptr %0, i64 32
  %7 = getelementptr inbounds i8, ptr %0, i64 24
  %8 = load ptr, ptr %7, align 8
  %.promoted.i = load ptr, ptr %6, align 8
  %9 = icmp ult ptr %.promoted.i, %8
  br i1 %9, label %.lr.ph.i, label %_ZN4JSON8mark_posEv.exit

.lr.ph.i:                                         ; preds = %5
  %10 = getelementptr inbounds i8, ptr %0, i64 48
  %11 = getelementptr inbounds i8, ptr %0, i64 44
  %.promoted2.i = load i32, ptr %10, align 8
  %.promoted3.i = load i32, ptr %11, align 4
  br label %12

12:                                               ; preds = %23, %.lr.ph.i
  %13 = phi i32 [ %.promoted3.i, %.lr.ph.i ], [ %24, %23 ]
  %14 = phi i32 [ %.promoted2.i, %.lr.ph.i ], [ %25, %23 ]
  %15 = phi ptr [ %.promoted.i, %.lr.ph.i ], [ %26, %23 ]
  %16 = load i8, ptr %15, align 1
  %cond.i = icmp eq i8 %16, 0
  br i1 %cond.i, label %23, label %17

17:                                               ; preds = %12
  %18 = getelementptr inbounds i8, ptr %15, i64 1
  store ptr %18, ptr %6, align 8
  %19 = add i32 %14, 1
  store i32 %19, ptr %10, align 8
  %20 = icmp eq i8 %16, 10
  br i1 %20, label %21, label %23

21:                                               ; preds = %17
  %22 = add i32 %13, 1
  store i32 %22, ptr %11, align 4
  store i32 0, ptr %10, align 8
  br label %23

23:                                               ; preds = %21, %17, %12
  %24 = phi i32 [ %13, %12 ], [ %22, %21 ], [ %13, %17 ]
  %25 = phi i32 [ %14, %12 ], [ 0, %21 ], [ %19, %17 ]
  %26 = phi ptr [ %15, %12 ], [ %18, %21 ], [ %18, %17 ]
  %27 = icmp ult ptr %26, %8
  br i1 %27, label %12, label %_ZN4JSON8mark_posEv.exit, !llvm.loop !9

28:                                               ; preds = %3
  %29 = getelementptr inbounds i8, ptr %0, i64 40
  %30 = load i32, ptr %29, align 8
  %31 = load ptr, ptr %0, align 8
  %32 = load ptr, ptr %31, align 8
  %33 = tail call noundef zeroext i1 %32(ptr noundef nonnull align 8 dereferenceable(54) %0, i32 noundef %2, ptr noundef null, i32 noundef %30) #13
  br label %_ZN4JSON8mark_posEv.exit

_ZN4JSON8mark_posEv.exit:                         ; preds = %23, %5, %28
  %.0 = phi i1 [ %33, %28 ], [ false, %5 ], [ false, %23 ]
  ret i1 %.0
}